target datalayout = "e-m:e-p270:32:32-p271:32:32-p272:64:64-i64:64-i128:128-f80:128-n8:16:32:64-S128"
target triple = "x86_64-pc-linux-gnu"

%struct.AVRational = type { i32, i32 }
%struct.AVFormatContext = type { ptr, ptr, ptr, ptr, ptr, i32, i32, ptr, i32, ptr, i32, ptr, ptr, i64, i64, i64, i32, i32, i32, i64, i64, ptr, i32, i32, ptr, i32, i32, i32, i32, ptr, i64, i32, i32, %struct.AVIOInterruptCB, i32, i32, i32, i32, i64, i32, i32, i32, i32, i32, i32, i32, i32, i32, i32, i32, i32, i64, i32, i32, i32, i32, i32, ptr, ptr, ptr, ptr, i32, ptr, ptr, ptr, ptr, i32, ptr, ptr, i64, ptr, ptr, ptr, i64 }
%struct.AVIOInterruptCB = type { ptr, ptr }
%struct.ogg = type { ptr, i32, i32, i32, i64, ptr }
%struct.ogg_stream = type { ptr, i32, i32, i32, i32, i32, i32, i32, i64, i64, i64, i64, i64, i64, i32, ptr, i32, i32, i32, [255 x i8], i32, i32, i32, i32, i32, i32, i32, i32, ptr, i64, ptr }
%struct.AVStream = type { ptr, i32, i32, ptr, ptr, %struct.AVRational, i64, i64, i64, i32, i32, %struct.AVRational, ptr, %struct.AVRational, %struct.AVPacket, i32, %struct.AVRational, i32 }
%struct.AVPacket = type { ptr, i64, i64, ptr, i32, i32, i32, ptr, i32, i64, i64, ptr, ptr, %struct.AVRational }
%struct.AVCodecParameters = type { i32, i32, i32, ptr, i32, ptr, i32, i32, i64, i32, i32, i32, i32, i32, i32, %struct.AVRational, %struct.AVRational, i32, i32, i32, i32, i32, i32, i32, %struct.AVChannelLayout, i32, i32, i32, i32, i32, i32 }
%struct.AVChannelLayout = type { i32, i32, %union.anon, ptr }
%union.anon = type { i64 }
%struct.FFStream = type { %struct.AVStream, ptr, i32, ptr, i32, ptr, i32, %struct.anon, i32, i32, %struct.FFFrac, ptr, ptr, i32, i32, i64, i64, i32, i32, i32, i64, i64, i64, i32, i64, i64, i64, i32, i32, [17 x i64], [17 x i8], [17 x i64], i64, i8, i8, %struct.AVRational, %struct.AVProbeData, ptr, i64, i32, i32, i32, ptr, i32, i32, i64, i64, ptr, %struct.AVRational }
%struct.anon = type { ptr, i32 }
%struct.FFFrac = type { i64, i64, i64 }
%struct.AVProbeData = type { ptr, ptr, i32, ptr }

@.str.1 = private unnamed_addr constant [29 x i8] c"Invalid OggVP8 header packet\00", align 1
@.str.2 = private unnamed_addr constant [30 x i8] c"Unknown OggVP8 version %d.%d\0A\00", align 1
@.str.3 = private unnamed_addr constant [32 x i8] c"Unknown VP8 header type 0x%02X\0A\00", align 1

; Function Attrs: alwaysinline nounwind uwtable
define internal ptr @ffstream(ptr noundef %0) #4 {
  %2 = alloca ptr, align 8
  store ptr %0, ptr %2, align 8, !tbaa !40
  %3 = load ptr, ptr %2, align 8, !tbaa !40
  ret ptr %3
}

; Function Attrs: alwaysinline nounwind willreturn memory(none) uwtable
define internal i32 @av_bswap32(i32 noundef %0) #3 {
  %2 = alloca i32, align 4
  store i32 %0, ptr %2, align 4, !tbaa !9
  %3 = load i32, ptr %2, align 4, !tbaa !9
  %4 = shl i32 %3, 8
  %5 = and i32 %4, 65280
  %6 = load i32, ptr %2, align 4, !tbaa !9
  %7 = lshr i32 %6, 8
  %8 = and i32 %7, 255
  %9 = or i32 %5, %8
  %10 = shl i32 %9, 16
  %11 = load i32, ptr %2, align 4, !tbaa !9
  %12 = lshr i32 %11, 16
  %13 = shl i32 %12, 8
  %14 = and i32 %13, 65280
  %15 = load i32, ptr %2, align 4, !tbaa !9
  %16 = lshr i32 %15, 16
  %17 = lshr i32 %16, 8
  %18 = and i32 %17, 255
  %19 = or i32 %14, %18
  %20 = or i32 %10, %19
  ret i32 %20
}

; Function Attrs: alwaysinline nounwind willreturn memory(none) uwtable
define internal zeroext i16 @av_bswap16(i16 noundef zeroext %0) #3 {
  %2 = alloca i16, align 2
  store i16 %0, ptr %2, align 2, !tbaa !88
  %3 = load i16, ptr %2, align 2, !tbaa !88
  %4 = zext i16 %3 to i32
  %5 = ashr i32 %4, 8
  %6 = load i16, ptr %2, align 2, !tbaa !88
  %7 = zext i16 %6 to i32
  %8 = shl i32 %7, 8
  %9 = or i32 %5, %8
  %10 = trunc i32 %9 to i16
  store i16 %10, ptr %2, align 2, !tbaa !88
  %11 = load i16, ptr %2, align 2, !tbaa !88
  ret i16 %11
}

; Function Attrs: nounwind uwtable
define internal i32 @vp8_header(ptr noundef %0, i32 noundef %1) #0 {
  %3 = alloca i32, align 4
  %4 = alloca ptr, align 8
  %5 = alloca i32, align 4
  %6 = alloca ptr, align 8
  %7 = alloca ptr, align 8
  %8 = alloca ptr, align 8
  %9 = alloca ptr, align 8
  %10 = alloca %struct.AVRational, align 4
  %11 = alloca i32, align 4
  store ptr %0, ptr %4, align 8, !tbaa !4
  store i32 %1, ptr %5, align 4, !tbaa !9
  call void @llvm.lifetime.start.p0(i64 8, ptr %6) #5
  %12 = load ptr, ptr %4, align 8, !tbaa !4
  %13 = getelementptr inbounds nuw %struct.AVFormatContext, ptr %12, i32 0, i32 3
  %14 = load ptr, ptr %13, align 8, !tbaa !11
  store ptr %14, ptr %6, align 8, !tbaa !27
  call void @llvm.lifetime.start.p0(i64 8, ptr %7) #5
  %15 = load ptr, ptr %6, align 8, !tbaa !27
  %16 = getelementptr inbounds nuw %struct.ogg, ptr %15, i32 0, i32 0
  %17 = load ptr, ptr %16, align 8, !tbaa !29
  %18 = load i32, ptr %5, align 4, !tbaa !9
  %19 = sext i32 %18 to i64
  %20 = getelementptr inbounds %struct.ogg_stream, ptr %17, i64 %19
  store ptr %20, ptr %7, align 8, !tbaa !33
  call void @llvm.lifetime.start.p0(i64 8, ptr %8) #5
  %21 = load ptr, ptr %7, align 8, !tbaa !33
  %22 = getelementptr inbounds nuw %struct.ogg_stream, ptr %21, i32 0, i32 0
  %23 = load ptr, ptr %22, align 8, !tbaa !34
  %24 = load ptr, ptr %7, align 8, !tbaa !33
  %25 = getelementptr inbounds nuw %struct.ogg_stream, ptr %24, i32 0, i32 3
  %26 = load i32, ptr %25, align 8, !tbaa !37
  %27 = zext i32 %26 to i64
  %28 = getelementptr inbounds nuw i8, ptr %23, i64 %27
  store ptr %28, ptr %8, align 8, !tbaa !38
  call void @llvm.lifetime.start.p0(i64 8, ptr %9) #5
  %29 = load ptr, ptr %4, align 8, !tbaa !4
  %30 = getelementptr inbounds nuw %struct.AVFormatContext, ptr %29, i32 0, i32 7
  %31 = load ptr, ptr %30, align 8, !tbaa !39
  %32 = load i32, ptr %5, align 4, !tbaa !9
  %33 = sext i32 %32 to i64
  %34 = getelementptr inbounds ptr, ptr %31, i64 %33
  %35 = load ptr, ptr %34, align 8, !tbaa !40
  store ptr %35, ptr %9, align 8, !tbaa !40
  call void @llvm.lifetime.start.p0(i64 8, ptr %10) #5
  %36 = load ptr, ptr %7, align 8, !tbaa !33
  %37 = getelementptr inbounds nuw %struct.ogg_stream, ptr %36, i32 0, i32 4
  %38 = load i32, ptr %37, align 4, !tbaa !42
  %39 = icmp ult i32 %38, 7
  br i1 %39, label %46, label %40

40:                                               ; preds = %2
  %41 = load ptr, ptr %8, align 8, !tbaa !38
  %42 = getelementptr inbounds i8, ptr %41, i64 0
  %43 = load i8, ptr %42, align 1, !tbaa !43
  %44 = zext i8 %43 to i32
  %45 = icmp ne i32 %44, 79
  br i1 %45, label %46, label %47

46:                                               ; preds = %40, %2
  store i32 0, ptr %3, align 4
  store i32 1, ptr %11, align 4
  br label %188

47:                                               ; preds = %40
  %48 = load ptr, ptr %8, align 8, !tbaa !38
  %49 = getelementptr inbounds i8, ptr %48, i64 5
  %50 = load i8, ptr %49, align 1, !tbaa !43
  %51 = zext i8 %50 to i32
  switch i32 %51, label %181 [
    i32 1, label %52
    i32 2, label %164
  ]

52:                                               ; preds = %47
  %53 = load ptr, ptr %7, align 8, !tbaa !33
  %54 = getelementptr inbounds nuw %struct.ogg_stream, ptr %53, i32 0, i32 4
  %55 = load i32, ptr %54, align 4, !tbaa !42
  %56 = icmp ult i32 %55, 26
  br i1 %56, label %57, label %59

57:                                               ; preds = %52
  %58 = load ptr, ptr %4, align 8, !tbaa !4
  call void (ptr, i32, ptr, ...) @av_log(ptr noundef %58, i32 noundef 16, ptr noundef @.str.1)
  store i32 -1094995529, ptr %3, align 4
  store i32 1, ptr %11, align 4
  br label %188

59:                                               ; preds = %52
  %60 = load ptr, ptr %8, align 8, !tbaa !38
  %61 = getelementptr inbounds i8, ptr %60, i64 6
  %62 = load i8, ptr %61, align 1, !tbaa !43
  %63 = zext i8 %62 to i32
  %64 = icmp ne i32 %63, 1
  br i1 %64, label %65, label %75

65:                                               ; preds = %59
  %66 = load ptr, ptr %4, align 8, !tbaa !4
  %67 = load ptr, ptr %8, align 8, !tbaa !38
  %68 = getelementptr inbounds i8, ptr %67, i64 6
  %69 = load i8, ptr %68, align 1, !tbaa !43
  %70 = zext i8 %69 to i32
  %71 = load ptr, ptr %8, align 8, !tbaa !38
  %72 = getelementptr inbounds i8, ptr %71, i64 7
  %73 = load i8, ptr %72, align 1, !tbaa !43
  %74 = zext i8 %73 to i32
  call void (ptr, i32, ptr, ...) @av_log(ptr noundef %66, i32 noundef 24, ptr noundef @.str.2, i32 noundef %70, i32 noundef %74)
  store i32 -1094995529, ptr %3, align 4
  store i32 1, ptr %11, align 4
  br label %188

75:                                               ; preds = %59
  %76 = load ptr, ptr %8, align 8, !tbaa !38
  %77 = getelementptr inbounds i8, ptr %76, i64 8
  %78 = load i16, ptr %77, align 1, !tbaa !43
  %79 = call zeroext i16 @av_bswap16(i16 noundef zeroext %78) #6
  %80 = zext i16 %79 to i32
  %81 = load ptr, ptr %9, align 8, !tbaa !40
  %82 = getelementptr inbounds nuw %struct.AVStream, ptr %81, i32 0, i32 3
  %83 = load ptr, ptr %82, align 8, !tbaa !44
  %84 = getelementptr inbounds nuw %struct.AVCodecParameters, ptr %83, i32 0, i32 13
  store i32 %80, ptr %84, align 8, !tbaa !51
  %85 = load ptr, ptr %8, align 8, !tbaa !38
  %86 = getelementptr inbounds i8, ptr %85, i64 10
  %87 = load i16, ptr %86, align 1, !tbaa !43
  %88 = call zeroext i16 @av_bswap16(i16 noundef zeroext %87) #6
  %89 = zext i16 %88 to i32
  %90 = load ptr, ptr %9, align 8, !tbaa !40
  %91 = getelementptr inbounds nuw %struct.AVStream, ptr %90, i32 0, i32 3
  %92 = load ptr, ptr %91, align 8, !tbaa !44
  %93 = getelementptr inbounds nuw %struct.AVCodecParameters, ptr %92, i32 0, i32 14
  store i32 %89, ptr %93, align 4, !tbaa !54
  %94 = load ptr, ptr %8, align 8, !tbaa !38
  %95 = getelementptr inbounds i8, ptr %94, i64 12
  %96 = getelementptr inbounds i8, ptr %95, i64 0
  %97 = load i8, ptr %96, align 1, !tbaa !43
  %98 = zext i8 %97 to i32
  %99 = shl i32 %98, 16
  %100 = load ptr, ptr %8, align 8, !tbaa !38
  %101 = getelementptr inbounds i8, ptr %100, i64 12
  %102 = getelementptr inbounds i8, ptr %101, i64 1
  %103 = load i8, ptr %102, align 1, !tbaa !43
  %104 = zext i8 %103 to i32
  %105 = shl i32 %104, 8
  %106 = or i32 %99, %105
  %107 = load ptr, ptr %8, align 8, !tbaa !38
  %108 = getelementptr inbounds i8, ptr %107, i64 12
  %109 = getelementptr inbounds i8, ptr %108, i64 2
  %110 = load i8, ptr %109, align 1, !tbaa !43
  %111 = zext i8 %110 to i32
  %112 = or i32 %106, %111
  %113 = load ptr, ptr %9, align 8, !tbaa !40
  %114 = getelementptr inbounds nuw %struct.AVStream, ptr %113, i32 0, i32 11
  %115 = getelementptr inbounds nuw %struct.AVRational, ptr %114, i32 0, i32 0
  store i32 %112, ptr %115, align 8, !tbaa !55
  %116 = load ptr, ptr %8, align 8, !tbaa !38
  %117 = getelementptr inbounds i8, ptr %116, i64 15
  %118 = getelementptr inbounds i8, ptr %117, i64 0
  %119 = load i8, ptr %118, align 1, !tbaa !43
  %120 = zext i8 %119 to i32
  %121 = shl i32 %120, 16
  %122 = load ptr, ptr %8, align 8, !tbaa !38
  %123 = getelementptr inbounds i8, ptr %122, i64 15
  %124 = getelementptr inbounds i8, ptr %123, i64 1
  %125 = load i8, ptr %124, align 1, !tbaa !43
  %126 = zext i8 %125 to i32
  %127 = shl i32 %126, 8
  %128 = or i32 %121, %127
  %129 = load ptr, ptr %8, align 8, !tbaa !38
  %130 = getelementptr inbounds i8, ptr %129, i64 15
  %131 = getelementptr inbounds i8, ptr %130, i64 2
  %132 = load i8, ptr %131, align 1, !tbaa !43
  %133 = zext i8 %132 to i32
  %134 = or i32 %128, %133
  %135 = load ptr, ptr %9, align 8, !tbaa !40
  %136 = getelementptr inbounds nuw %struct.AVStream, ptr %135, i32 0, i32 11
  %137 = getelementptr inbounds nuw %struct.AVRational, ptr %136, i32 0, i32 1
  store i32 %134, ptr %137, align 4, !tbaa !56
  %138 = load ptr, ptr %8, align 8, !tbaa !38
  %139 = getelementptr inbounds i8, ptr %138, i64 18
  %140 = load i32, ptr %139, align 1, !tbaa !43
  %141 = call i32 @av_bswap32(i32 noundef %140) #6
  %142 = getelementptr inbounds nuw %struct.AVRational, ptr %10, i32 0, i32 0
  store i32 %141, ptr %142, align 4, !tbaa !57
  %143 = load ptr, ptr %8, align 8, !tbaa !38
  %144 = getelementptr inbounds i8, ptr %143, i64 22
  %145 = load i32, ptr %144, align 1, !tbaa !43
  %146 = call i32 @av_bswap32(i32 noundef %145) #6
  %147 = getelementptr inbounds nuw %struct.AVRational, ptr %10, i32 0, i32 1
  store i32 %146, ptr %147, align 4, !tbaa !58
  %148 = load ptr, ptr %9, align 8, !tbaa !40
  %149 = getelementptr inbounds nuw %struct.AVRational, ptr %10, i32 0, i32 1
  %150 = load i32, ptr %149, align 4, !tbaa !58
  %151 = getelementptr inbounds nuw %struct.AVRational, ptr %10, i32 0, i32 0
  %152 = load i32, ptr %151, align 4, !tbaa !57
  call void @avpriv_set_pts_info(ptr noundef %148, i32 noundef 64, i32 noundef %150, i32 noundef %152)
  %153 = load ptr, ptr %9, align 8, !tbaa !40
  %154 = getelementptr inbounds nuw %struct.AVStream, ptr %153, i32 0, i32 3
  %155 = load ptr, ptr %154, align 8, !tbaa !44
  %156 = getelementptr inbounds nuw %struct.AVCodecParameters, ptr %155, i32 0, i32 0
  store i32 0, ptr %156, align 8, !tbaa !59
  %157 = load ptr, ptr %9, align 8, !tbaa !40
  %158 = getelementptr inbounds nuw %struct.AVStream, ptr %157, i32 0, i32 3
  %159 = load ptr, ptr %158, align 8, !tbaa !44
  %160 = getelementptr inbounds nuw %struct.AVCodecParameters, ptr %159, i32 0, i32 1
  store i32 139, ptr %160, align 4, !tbaa !60
  %161 = load ptr, ptr %9, align 8, !tbaa !40
  %162 = call ptr @ffstream(ptr noundef %161)
  %163 = getelementptr inbounds nuw %struct.FFStream, ptr %162, i32 0, i32 41
  store i32 2, ptr %163, align 8, !tbaa !61
  br label %187

164:                                              ; preds = %47
  %165 = load ptr, ptr %8, align 8, !tbaa !38
  %166 = getelementptr inbounds i8, ptr %165, i64 6
  %167 = load i8, ptr %166, align 1, !tbaa !43
  %168 = zext i8 %167 to i32
  %169 = icmp ne i32 %168, 32
  br i1 %169, label %170, label %171

170:                                              ; preds = %164
  store i32 -1094995529, ptr %3, align 4
  store i32 1, ptr %11, align 4
  br label %188

171:                                              ; preds = %164
  %172 = load ptr, ptr %4, align 8, !tbaa !4
  %173 = load ptr, ptr %9, align 8, !tbaa !40
  %174 = load ptr, ptr %8, align 8, !tbaa !38
  %175 = getelementptr inbounds i8, ptr %174, i64 7
  %176 = load ptr, ptr %7, align 8, !tbaa !33
  %177 = getelementptr inbounds nuw %struct.ogg_stream, ptr %176, i32 0, i32 4
  %178 = load i32, ptr %177, align 4, !tbaa !42
  %179 = sub i32 %178, 7
  %180 = call i32 @ff_vorbis_stream_comment(ptr noundef %172, ptr noundef %173, ptr noundef %175, i32 noundef %179)
  br label %187

181:                                              ; preds = %47
  %182 = load ptr, ptr %4, align 8, !tbaa !4
  %183 = load ptr, ptr %8, align 8, !tbaa !38
  %184 = getelementptr inbounds i8, ptr %183, i64 5
  %185 = load i8, ptr %184, align 1, !tbaa !43
  %186 = zext i8 %185 to i32
  call void (ptr, i32, ptr, ...) @av_log(ptr noundef %182, i32 noundef 16, ptr noundef @.str.3, i32 noundef %186)
  store i32 -1094995529, ptr %3, align 4
  store i32 1, ptr %11, align 4
  br label %188

187:                                              ; preds = %171, %75
  store i32 1, ptr %3, align 4
  store i32 1, ptr %11, align 4
  br label %188

188:                                              ; preds = %187, %181, %170, %65, %57, %46
  call void @llvm.lifetime.end.p0(i64 8, ptr %10) #5
  call void @llvm.lifetime.end.p0(i64 8, ptr %9) #5
  call void @llvm.lifetime.end.p0(i64 8, ptr %8) #5
  call void @llvm.lifetime.end.p0(i64 8, ptr %7) #5
  call void @llvm.lifetime.end.p0(i64 8, ptr %6) #5
  %189 = load i32, ptr %3, align 4
  ret i32 %189
}