; Function Attrs: nounwind uwtable
define internal range(i32 -1094995529, 2) i32 @vp8_header(ptr noundef %0, i32 noundef %1) #0 {
  %3 = getelementptr inbounds nuw i8, ptr %0, i64 24
  %4 = load ptr, ptr %3, align 8, !tbaa !4
  %5 = load ptr, ptr %4, align 8, !tbaa !24
  %6 = sext i32 %1 to i64
  %7 = getelementptr inbounds %struct.ogg_stream, ptr %5, i64 %6
  %8 = load ptr, ptr %7, align 8, !tbaa !28
  %9 = getelementptr inbounds nuw i8, ptr %7, i64 16
  %10 = load i32, ptr %9, align 8, !tbaa !31
  %11 = zext i32 %10 to i64
  %12 = getelementptr inbounds nuw i8, ptr %8, i64 %11
  %13 = getelementptr inbounds nuw i8, ptr %0, i64 48
  %14 = load ptr, ptr %13, align 8, !tbaa !32
  %15 = getelementptr inbounds ptr, ptr %14, i64 %6
  %16 = load ptr, ptr %15, align 8, !tbaa !33
  %17 = getelementptr inbounds nuw i8, ptr %7, i64 20
  %18 = load i32, ptr %17, align 4, !tbaa !35
  %19 = icmp ult i32 %18, 7
  br i1 %19, label %95, label %20

20:                                               ; preds = %2
  %21 = load i8, ptr %12, align 1, !tbaa !36
  %.not = icmp eq i8 %21, 79
  br i1 %.not, label %22, label %95

22:                                               ; preds = %20
  %23 = getelementptr inbounds nuw i8, ptr %12, i64 5
  %24 = load i8, ptr %23, align 1, !tbaa !36
  switch i8 %24, label %93 [
    i8 1, label %25
    i8 2, label %86
  ]

25:                                               ; preds = %22
  %26 = icmp ult i32 %18, 26
  br i1 %26, label %27, label %28

27:                                               ; preds = %25
  tail call void (ptr, i32, ptr, ...) @av_log(ptr noundef nonnull %0, i32 noundef 16, ptr noundef nonnull @.str.1) #5
  br label %95

28:                                               ; preds = %25
  %29 = getelementptr inbounds nuw i8, ptr %12, i64 6
  %30 = load i8, ptr %29, align 1, !tbaa !36
  %.not44 = icmp eq i8 %30, 1
  br i1 %.not44, label %36, label %31

31:                                               ; preds = %28
  %32 = zext i8 %30 to i32
  %33 = getelementptr inbounds nuw i8, ptr %12, i64 7
  %34 = load i8, ptr %33, align 1, !tbaa !36
  %35 = zext i8 %34 to i32
  tail call void (ptr, i32, ptr, ...) @av_log(ptr noundef nonnull %0, i32 noundef 24, ptr noundef nonnull @.str.2, i32 noundef %32, i32 noundef %35) #5
  br label %95

36:                                               ; preds = %28
  %37 = getelementptr inbounds nuw i8, ptr %12, i64 8
  %38 = load i16, ptr %37, align 1, !tbaa !36
  %39 = tail call i16 @llvm.bswap.i16(i16 %38)
  %40 = zext i16 %39 to i32
  %41 = getelementptr inbounds nuw i8, ptr %16, i64 16
  %42 = load ptr, ptr %41, align 8, !tbaa !37
  %43 = getelementptr inbounds nuw i8, ptr %42, i64 72
  store i32 %40, ptr %43, align 8, !tbaa !44
  %44 = getelementptr inbounds nuw i8, ptr %12, i64 10
  %45 = load i16, ptr %44, align 1, !tbaa !36
  %46 = tail call i16 @llvm.bswap.i16(i16 %45)
  %47 = zext i16 %46 to i32
  %48 = getelementptr inbounds nuw i8, ptr %42, i64 76
  store i32 %47, ptr %48, align 4, !tbaa !47
  %49 = getelementptr inbounds nuw i8, ptr %12, i64 12
  %50 = load i8, ptr %49, align 1, !tbaa !36
  %51 = zext i8 %50 to i32
  %52 = shl nuw nsw i32 %51, 16
  %53 = getelementptr inbounds nuw i8, ptr %12, i64 13
  %54 = load i8, ptr %53, align 1, !tbaa !36
  %55 = zext i8 %54 to i32
  %56 = shl nuw nsw i32 %55, 8
  %57 = or disjoint i32 %56, %52
  %58 = getelementptr inbounds nuw i8, ptr %12, i64 14
  %59 = load i8, ptr %58, align 1, !tbaa !36
  %60 = zext i8 %59 to i32
  %61 = or disjoint i32 %57, %60
  %62 = getelementptr inbounds nuw i8, ptr %16, i64 72
  store i32 %61, ptr %62, align 8, !tbaa !48
  %63 = getelementptr inbounds nuw i8, ptr %12, i64 15
  %64 = load i8, ptr %63, align 1, !tbaa !36
  %65 = zext i8 %64 to i32
  %66 = shl nuw nsw i32 %65, 16
  %67 = getelementptr inbounds nuw i8, ptr %12, i64 16
  %68 = load i8, ptr %67, align 1, !tbaa !36
  %69 = zext i8 %68 to i32
  %70 = shl nuw nsw i32 %69, 8
  %71 = or disjoint i32 %70, %66
  %72 = getelementptr inbounds nuw i8, ptr %12, i64 17
  %73 = load i8, ptr %72, align 1, !tbaa !36
  %74 = zext i8 %73 to i32
  %75 = or disjoint i32 %71, %74
  %76 = getelementptr inbounds nuw i8, ptr %16, i64 76
  store i32 %75, ptr %76, align 4, !tbaa !49
  %77 = getelementptr inbounds nuw i8, ptr %12, i64 18
  %78 = load i32, ptr %77, align 1, !tbaa !36
  %79 = tail call i32 @llvm.bswap.i32(i32 %78)
  %80 = getelementptr inbounds nuw i8, ptr %12, i64 22
  %81 = load i32, ptr %80, align 1, !tbaa !36
  %82 = tail call i32 @llvm.bswap.i32(i32 %81)
  tail call void @avpriv_set_pts_info(ptr noundef %16, i32 noundef 64, i32 noundef %82, i32 noundef %79) #5
  %83 = load ptr, ptr %41, align 8, !tbaa !37
  store i32 0, ptr %83, align 8, !tbaa !50
  %84 = getelementptr inbounds nuw i8, ptr %83, i64 4
  store i32 139, ptr %84, align 4, !tbaa !51
  %85 = getelementptr inbounds nuw i8, ptr %16, i64 808
  store i32 2, ptr %85, align 8, !tbaa !52
  br label %95

86:                                               ; preds = %22
  %87 = getelementptr inbounds nuw i8, ptr %12, i64 6
  %88 = load i8, ptr %87, align 1, !tbaa !36
  %.not43 = icmp eq i8 %88, 32
  br i1 %.not43, label %89, label %95

89:                                               ; preds = %86
  %90 = getelementptr inbounds nuw i8, ptr %12, i64 7
  %91 = add i32 %18, -7
  %92 = tail call i32 @ff_vorbis_stream_comment(ptr noundef nonnull %0, ptr noundef %16, ptr noundef nonnull %90, i32 noundef %91) #5
  br label %95

93:                                               ; preds = %22
  %94 = zext i8 %24 to i32
  tail call void (ptr, i32, ptr, ...) @av_log(ptr noundef nonnull %0, i32 noundef 16, ptr noundef nonnull @.str.3, i32 noundef %94) #5
  br label %95

95:                                               ; preds = %36, %89, %86, %2, %20, %93, %31, %27
  %.0 = phi i32 [ -1094995529, %93 ], [ -1094995529, %27 ], [ -1094995529, %31 ], [ 0, %20 ], [ 0, %2 ], [ -1094995529, %86 ], [ 1, %89 ], [ 1, %36 ]
  ret i32 %.0
}